; Function Attrs: nounwind uwtable
define dso_local void @makeStar(i32 noundef %0, ptr noundef readonly captures(none) %1) local_unnamed_addr #0 {
  %3 = icmp ult i32 %0, 3
  br i1 %3, label %4, label %.preheader

4:                                                ; preds = %2
  %5 = load ptr, ptr @stderr, align 8, !tbaa !8
  %6 = tail call i32 (ptr, ptr, ...) @fprintf(ptr noundef %5, ptr noundef nonnull @.str.1, i32 noundef %0) #16
  switch i32 %0, label %makePath.exit.loopexit [
    i32 1, label %makePath.exit.sink.split
    i32 0, label %makePath.exit
  ]

.preheader:                                       ; preds = %2, %.preheader
  %.010 = phi i32 [ %7, %.preheader ], [ 2, %2 ]
  tail call void %1(i32 noundef 1, i32 noundef %.010) #15
  %7 = add i32 %.010, 1
  %.not = icmp ugt i32 %7, %0
  br i1 %.not, label %makePath.exit, label %.preheader, !llvm.loop !14

makePath.exit.loopexit:                           ; preds = %4
  br label %makePath.exit.sink.split

makePath.exit.sink.split:                         ; preds = %4, %makePath.exit.loopexit
  %.sink = phi i32 [ 2, %makePath.exit.loopexit ], [ 0, %4 ]
  tail call void %1(i32 noundef 1, i32 noundef %.sink) #15
  br label %makePath.exit

makePath.exit:                                    ; preds = %.preheader, %makePath.exit.sink.split, %4
  ret void
}